; Function Attrs: mustprogress uwtable
define noundef zeroext i1 @_ZN2cv12VideoCapture4grabEv(ptr noundef nonnull readonly align 8 captures(none) dereferenceable(41) %0) unnamed_addr #3 align 2 personality ptr @__gxx_personality_v0 {
  %2 = alloca %"class.cv::utils::trace::details::Region", align 8
  %3 = alloca %"class.std::__cxx11::basic_string", align 8
  %4 = alloca %"class.std::allocator", align 1
  call void @llvm.lifetime.start.p0(i64 16, ptr nonnull %2) #27
  call void @_ZN2cv5utils5trace7details6RegionC1ERKNS3_21LocationStaticStorageE(ptr noundef nonnull align 8 dereferenceable(12) %2, ptr noundef nonnull align 8 dereferenceable(32) @_ZZN2cv12VideoCapture4grabEvE25__cv_trace_location_fn529)
  %5 = getelementptr inbounds nuw i8, ptr %0, i64 24
  %6 = load ptr, ptr %5, align 8, !tbaa !90
  %7 = icmp eq ptr %6, null
  br i1 %7, label %.thread, label %8

8:                                                ; preds = %1
  %9 = load ptr, ptr %6, align 8, !tbaa !10
  %10 = getelementptr inbounds nuw i8, ptr %9, i64 32
  %11 = load ptr, ptr %10, align 8
  %12 = invoke noundef zeroext i1 %11(ptr noundef nonnull align 8 dereferenceable(8) %6)
          to label %13 unwind label %20

13:                                               ; preds = %8
  br i1 %12, label %32, label %.thread

.thread:                                          ; preds = %1, %13
  %14 = getelementptr inbounds nuw i8, ptr %0, i64 40
  %15 = load i8, ptr %14, align 8, !tbaa !106, !range !78, !noundef !79
  %16 = trunc nuw i8 %15 to i1
  br i1 %16, label %17, label %32

17:                                               ; preds = %.thread
  call void @llvm.lifetime.start.p0(i64 32, ptr nonnull %3) #27
  call void @llvm.lifetime.start.p0(i64 1, ptr nonnull %4) #27
  invoke void @_ZNSt7__cxx1112basic_stringIcSt11char_traitsIcESaIcEEC2EPKcRKS3_(ptr noundef nonnull align 8 dereferenceable(32) %3, ptr noundef nonnull @.str.41, ptr noundef nonnull align 1 dereferenceable(1) %4)
          to label %18 unwind label %22

18:                                               ; preds = %17
  invoke void @_ZN2cv5errorEiRKNSt7__cxx1112basic_stringIcSt11char_traitsIcESaIcEEEPKcS9_i(i32 noundef -2, ptr noundef nonnull align 8 dereferenceable(32) %3, ptr noundef nonnull @__func__._ZN2cv12VideoCapture4grabEv, ptr noundef nonnull @.str.7, i32 noundef 533) #29
          to label %19 unwind label %24

19:                                               ; preds = %18
  unreachable

20:                                               ; preds = %8
  %21 = landingpad { ptr, i32 }
          cleanup
  br label %40

22:                                               ; preds = %17
  %23 = landingpad { ptr, i32 }
          cleanup
  br label %_ZNSt7__cxx1112basic_stringIcSt11char_traitsIcESaIcEED2Ev.exit

24:                                               ; preds = %18
  %25 = landingpad { ptr, i32 }
          cleanup
  %26 = load ptr, ptr %3, align 8, !tbaa !73
  %27 = getelementptr inbounds nuw i8, ptr %3, i64 16
  %28 = icmp eq ptr %26, %27
  br i1 %28, label %_ZNKSt7__cxx1112basic_stringIcSt11char_traitsIcESaIcEE11_M_is_localEv.exit.thread.i.i, label %_ZNKSt7__cxx1112basic_stringIcSt11char_traitsIcESaIcEE11_M_is_localEv.exit.i.i

_ZNKSt7__cxx1112basic_stringIcSt11char_traitsIcESaIcEE11_M_is_localEv.exit.thread.i.i: ; preds = %24
  %29 = getelementptr inbounds nuw i8, ptr %3, i64 8
  %30 = load i64, ptr %29, align 8, !tbaa !68
  %31 = icmp ult i64 %30, 16
  call void @llvm.assume(i1 %31)
  br label %_ZNSt7__cxx1112basic_stringIcSt11char_traitsIcESaIcEED2Ev.exit

_ZNKSt7__cxx1112basic_stringIcSt11char_traitsIcESaIcEE11_M_is_localEv.exit.i.i: ; preds = %24
  call void @_ZdlPv(ptr noundef %26) #28
  br label %_ZNSt7__cxx1112basic_stringIcSt11char_traitsIcESaIcEED2Ev.exit

_ZNSt7__cxx1112basic_stringIcSt11char_traitsIcESaIcEED2Ev.exit: ; preds = %_ZNKSt7__cxx1112basic_stringIcSt11char_traitsIcESaIcEE11_M_is_localEv.exit.i.i, %_ZNKSt7__cxx1112basic_stringIcSt11char_traitsIcESaIcEE11_M_is_localEv.exit.thread.i.i, %22
  %.pn = phi { ptr, i32 } [ %23, %22 ], [ %25, %_ZNKSt7__cxx1112basic_stringIcSt11char_traitsIcESaIcEE11_M_is_localEv.exit.thread.i.i ], [ %25, %_ZNKSt7__cxx1112basic_stringIcSt11char_traitsIcESaIcEE11_M_is_localEv.exit.i.i ]
  call void @llvm.lifetime.end.p0(i64 1, ptr nonnull %4) #27
  call void @llvm.lifetime.end.p0(i64 32, ptr nonnull %3) #27
  br label %40

32:                                               ; preds = %.thread, %13
  %33 = phi i1 [ false, %.thread ], [ true, %13 ]
  %34 = getelementptr inbounds nuw i8, ptr %2, i64 8
  %35 = load i32, ptr %34, align 8, !tbaa !12
  %.not.i = icmp eq i32 %35, 0
  br i1 %.not.i, label %_ZN2cv5utils5trace7details6RegionD2Ev.exit, label %36

36:                                               ; preds = %32
  invoke void @_ZN2cv5utils5trace7details6Region7destroyEv(ptr noundef nonnull align 8 dereferenceable(12) %2)
          to label %_ZN2cv5utils5trace7details6RegionD2Ev.exit unwind label %37

37:                                               ; preds = %36
  %38 = landingpad { ptr, i32 }
          catch ptr null
  %39 = extractvalue { ptr, i32 } %38, 0
  call void @__clang_call_terminate(ptr %39) #26
  unreachable

_ZN2cv5utils5trace7details6RegionD2Ev.exit:       ; preds = %32, %36
  call void @llvm.lifetime.end.p0(i64 16, ptr nonnull %2) #27
  ret i1 %33

40:                                               ; preds = %_ZNSt7__cxx1112basic_stringIcSt11char_traitsIcESaIcEED2Ev.exit, %20
  %.pn.pn = phi { ptr, i32 } [ %.pn, %_ZNSt7__cxx1112basic_stringIcSt11char_traitsIcESaIcEED2Ev.exit ], [ %21, %20 ]
  call void @_ZN2cv5utils5trace7details6RegionD2Ev(ptr noundef nonnull align 8 dereferenceable(12) %2) #27
  call void @llvm.lifetime.end.p0(i64 16, ptr nonnull %2) #27
  resume { ptr, i32 } %.pn.pn
}